; Function Attrs: mustprogress nofree norecurse nosync nounwind memory(readwrite, inaccessiblemem: none) uwtable
define hidden void @_ZN5zxing9BitMatrix7flipAllEv(ptr nocapture noundef nonnull readonly align 8 dereferenceable(346) %0) local_unnamed_addr #5 align 2 {
  %2 = getelementptr inbounds i8, ptr %0, i64 312
  %3 = load ptr, ptr %2, align 8
  %4 = getelementptr inbounds i8, ptr %3, i64 16
  %5 = load ptr, ptr %4, align 8
  %6 = getelementptr inbounds i8, ptr %3, i64 24
  %7 = load ptr, ptr %6, align 8
  %8 = ptrtoint ptr %7 to i64
  %9 = ptrtoint ptr %5 to i64
  %10 = sub i64 %8, %9
  %11 = trunc i64 %10 to i32
  %12 = icmp sgt i32 %11, 0
  br i1 %12, label %.lr.ph, label %._crit_edge

.lr.ph:                                           ; preds = %1, %.lr.ph
  %indvars.iv = phi i64 [ %indvars.iv.next, %.lr.ph ], [ 0, %1 ]
  %13 = getelementptr inbounds i8, ptr %5, i64 %indvars.iv
  %14 = load i8, ptr %13, align 1
  %15 = and i8 %14, 1
  %16 = xor i8 %15, 1
  store i8 %16, ptr %13, align 1
  %indvars.iv.next = add nuw nsw i64 %indvars.iv, 1
  %17 = load ptr, ptr %2, align 8
  %18 = getelementptr inbounds i8, ptr %17, i64 16
  %19 = getelementptr inbounds i8, ptr %17, i64 24
  %20 = load ptr, ptr %19, align 8
  %21 = load ptr, ptr %18, align 8
  %22 = ptrtoint ptr %20 to i64
  %23 = ptrtoint ptr %21 to i64
  %24 = sub i64 %22, %23
  %sext = shl i64 %24, 32
  %25 = ashr exact i64 %sext, 32
  %26 = icmp slt i64 %indvars.iv.next, %25
  br i1 %26, label %.lr.ph, label %._crit_edge, !llvm.loop !9

._crit_edge:                                      ; preds = %.lr.ph, %1
  ret void
}